; ModuleID = '15/1265.c'
source_filename = "15/1265.c"
target datalayout = "e-m:e-p270:32:32-p271:32:32-p272:64:64-i64:64-f80:128-n8:16:32:64-S128"
target triple = "x86_64-pc-linux-gnu"

@.str = private unnamed_addr constant [3 x i8] c"%d\00", align 1
@m = common dso_local global [1000 x [1000 x i32]] zeroinitializer, align 16
@.str.1 = private unnamed_addr constant [4 x i8] c"%d\0A\00", align 1

; Function Attrs: noinline nounwind uwtable
define dso_local i32 @main() #0 {
  %1 = alloca i32, align 4
  %2 = alloca i32, align 4
  %3 = alloca i32, align 4
  %4 = alloca i32, align 4
  %5 = alloca i32, align 4
  %6 = alloca i32, align 4
  %7 = alloca i32, align 4
  %8 = alloca i32, align 4
  %9 = alloca i32, align 4
  store i32 0, i32* %1, align 4
  store i32 0, i32* %5, align 4
  %10 = call i32 (i8*, ...) @__isoc99_scanf(i8* getelementptr inbounds ([3 x i8], [3 x i8]* @.str, i64 0, i64 0), i32* %4)
  store i32 0, i32* %2, align 4
  br label %11

11:                                               ; preds = %67, %0
  %12 = load i32, i32* %2, align 4
  %13 = load i32, i32* %4, align 4
  %14 = icmp slt i32 %12, %13
  br i1 %14, label %15, label %70

15:                                               ; preds = %11
  store i32 0, i32* %3, align 4
  br label %16

16:                                               ; preds = %63, %15
  %17 = load i32, i32* %3, align 4
  %18 = load i32, i32* %4, align 4
  %19 = icmp slt i32 %17, %18
  br i1 %19, label %20, label %66

20:                                               ; preds = %16
  %21 = load i32, i32* %2, align 4
  %22 = sext i32 %21 to i64
  %23 = getelementptr inbounds [1000 x [1000 x i32]], [1000 x [1000 x i32]]* @m, i64 0, i64 %22
  %24 = load i32, i32* %3, align 4
  %25 = sext i32 %24 to i64
  %26 = getelementptr inbounds [1000 x i32], [1000 x i32]* %23, i64 0, i64 %25
  %27 = call i32 (i8*, ...) @__isoc99_scanf(i8* getelementptr inbounds ([3 x i8], [3 x i8]* @.str, i64 0, i64 0), i32* %26)
  %28 = load i32, i32* %2, align 4
  %29 = sext i32 %28 to i64
  %30 = getelementptr inbounds [1000 x [1000 x i32]], [1000 x [1000 x i32]]* @m, i64 0, i64 %29
  %31 = load i32, i32* %3, align 4
  %32 = sext i32 %31 to i64
  %33 = getelementptr inbounds [1000 x i32], [1000 x i32]* %30, i64 0, i64 %32
  %34 = load i32, i32* %33, align 4
  %35 = icmp eq i32 %34, 0
  br i1 %35, label %36, label %62

36:                                               ; preds = %20
  %37 = load i32, i32* %2, align 4
  %38 = sub nsw i32 %37, 1
  %39 = sext i32 %38 to i64
  %40 = getelementptr inbounds [1000 x [1000 x i32]], [1000 x [1000 x i32]]* @m, i64 0, i64 %39
  %41 = load i32, i32* %3, align 4
  %42 = sext i32 %41 to i64
  %43 = getelementptr inbounds [1000 x i32], [1000 x i32]* %40, i64 0, i64 %42
  %44 = load i32, i32* %43, align 4
  %45 = icmp ne i32 %44, 0
  br i1 %45, label %46, label %59

46:                                               ; preds = %36
  %47 = load i32, i32* %2, align 4
  %48 = sext i32 %47 to i64
  %49 = getelementptr inbounds [1000 x [1000 x i32]], [1000 x [1000 x i32]]* @m, i64 0, i64 %48
  %50 = load i32, i32* %3, align 4
  %51 = sub nsw i32 %50, 1
  %52 = sext i32 %51 to i64
  %53 = getelementptr inbounds [1000 x i32], [1000 x i32]* %49, i64 0, i64 %52
  %54 = load i32, i32* %53, align 4
  %55 = icmp ne i32 %54, 0
  br i1 %55, label %56, label %59

56:                                               ; preds = %46
  %57 = load i32, i32* %2, align 4
  store i32 %57, i32* %8, align 4
  %58 = load i32, i32* %3, align 4
  store i32 %58, i32* %9, align 4
  br label %59

59:                                               ; preds = %56, %46, %36
  %60 = load i32, i32* %2, align 4
  store i32 %60, i32* %6, align 4
  %61 = load i32, i32* %3, align 4
  store i32 %61, i32* %7, align 4
  br label %62

62:                                               ; preds = %59, %20
  br label %63

63:                                               ; preds = %62
  %64 = load i32, i32* %3, align 4
  %65 = add nsw i32 %64, 1
  store i32 %65, i32* %3, align 4
  br label %16

66:                                               ; preds = %16
  br label %67

67:                                               ; preds = %66
  %68 = load i32, i32* %2, align 4
  %69 = add nsw i32 %68, 1
  store i32 %69, i32* %2, align 4
  br label %11

70:                                               ; preds = %11
  %71 = load i32, i32* %7, align 4
  %72 = load i32, i32* %9, align 4
  %73 = sub nsw i32 %71, %72
  %74 = sub nsw i32 %73, 1
  %75 = load i32, i32* %6, align 4
  %76 = load i32, i32* %8, align 4
  %77 = sub nsw i32 %75, %76
  %78 = sub nsw i32 %77, 1
  %79 = mul nsw i32 %74, %78
  %80 = call i32 (i8*, ...) @printf(i8* getelementptr inbounds ([4 x i8], [4 x i8]* @.str.1, i64 0, i64 0), i32 %79)
  ret i32 0
}

declare dso_local i32 @__isoc99_scanf(i8*, ...) #1

declare dso_local i32 @printf(i8*, ...) #1


!llvm.module.flags = !{!0}
!llvm.ident = !{!1}

!0 = !{i32 1, !"wchar_size", i32 4}
!1 = !{!"clang version 10.0.0-4ubuntu1 "}
